target datalayout = "e-m:e-p270:32:32-p271:32:32-p272:64:64-i64:64-i128:128-f80:128-n8:16:32:64-S128"
target triple = "x86_64-pc-linux-gnu"

%struct.aeEventLoop = type { i32, i32, i64, i32, ptr, ptr, ptr, i32, ptr, ptr, ptr, i32, [2 x ptr] }

; Function Attrs: nounwind uwtable
define dso_local void @aeSetDontWait(ptr noundef %0, i32 noundef %1) #0 {
  %3 = alloca ptr, align 8
  %4 = alloca i32, align 4
  store ptr %0, ptr %3, align 8, !tbaa !9
  store i32 %1, ptr %4, align 4, !tbaa !5
  %5 = load i32, ptr %4, align 4, !tbaa !5
  %6 = icmp ne i32 %5, 0
  br i1 %6, label %7, label %12

7:                                                ; preds = %2
  %8 = load ptr, ptr %3, align 8, !tbaa !9
  %9 = getelementptr inbounds nuw %struct.aeEventLoop, ptr %8, i32 0, i32 11
  %10 = load i32, ptr %9, align 8, !tbaa !27
  %11 = or i32 %10, 4
  store i32 %11, ptr %9, align 8, !tbaa !27
  br label %17

12:                                               ; preds = %2
  %13 = load ptr, ptr %3, align 8, !tbaa !9
  %14 = getelementptr inbounds nuw %struct.aeEventLoop, ptr %13, i32 0, i32 11
  %15 = load i32, ptr %14, align 8, !tbaa !27
  %16 = and i32 %15, -5
  store i32 %16, ptr %14, align 8, !tbaa !27
  br label %17

17:                                               ; preds = %12, %7
  ret void
}