; Function Attrs: mustprogress nofree norecurse nosync nounwind willreturn memory(argmem: readwrite) uwtable
define dso_local void @aeSetDontWait(ptr noundef captures(none) %0, i32 noundef %1) local_unnamed_addr #6 {
  %.not = icmp eq i32 %1, 0
  %3 = getelementptr inbounds nuw i8, ptr %0, i64 80
  %4 = load i32, ptr %3, align 8, !tbaa !31
  %5 = and i32 %4, -5
  %masksel = select i1 %.not, i32 0, i32 4
  %.sink = or disjoint i32 %5, %masksel
  store i32 %.sink, ptr %3, align 8, !tbaa !31
  ret void
}